target datalayout = "e-m:e-p270:32:32-p271:32:32-p272:64:64-i64:64-i128:128-f80:128-n8:16:32:64-S128"
target triple = "x86_64-pc-linux-gnu"

%struct.darktable_t = type { %struct.dt_codepath_t, i32, i32, ptr, ptr, ptr, ptr, ptr, ptr, ptr, ptr, ptr, ptr, ptr, ptr, ptr, ptr, ptr, ptr, ptr, ptr, ptr, ptr, ptr, ptr, ptr, ptr, ptr, ptr, ptr, [64 x %struct.dt_pthread_mutex_t], %struct.dt_pthread_mutex_t, %struct.dt_pthread_mutex_t, %struct.dt_pthread_mutex_t, %struct.dt_pthread_mutex_t, %struct.dt_pthread_mutex_t, ptr, ptr, ptr, ptr, ptr, ptr, ptr, ptr, ptr, ptr, ptr, ptr, ptr, %struct.dt_lua_state_t, ptr, double, ptr, i32, [47 x i32], i32, i32, ptr, ptr, %struct.dt_sys_resources_t, %struct.dt_backthumb_t, %struct.dt_gimp_t }
%struct.dt_codepath_t = type { i8, [3 x i8] }
%struct.dt_pthread_mutex_t = type { %union.pthread_mutex_t }
%union.pthread_mutex_t = type { %struct.__pthread_mutex_s }
%struct.__pthread_mutex_s = type { i32, i32, i32, i32, i32, i16, i16, %struct.__pthread_internal_list }
%struct.__pthread_internal_list = type { ptr, ptr }
%struct.dt_lua_state_t = type { i32 }
%struct.dt_sys_resources_t = type { i64, i64, ptr, ptr, i32 }
%struct.dt_backthumb_t = type { double, double, i32, i32, i32, i32 }
%struct.dt_gimp_t = type { i32, ptr, ptr, i32, i32 }
%struct.dt_database_t = type { i32, ptr, ptr, ptr, ptr, ptr, ptr, ptr, i32 }

@darktable = external global %struct.darktable_t, align 8
@_trxid = internal global i32 0, align 4
@.str.89 = private unnamed_addr constant [38 x i8] c"[sql] %s:%d, function %s(): exec \22%s\22\00", align 1
@.str.90 = private unnamed_addr constant [119 x i8] c"generated/home/dtcxzyw/WorkSpace/Projects/compilers/llvm-opt-benchmark/bench/darktable/darktable/src/common/database.c\00", align 1
@stderr = external global ptr, align 8
@.str.91 = private unnamed_addr constant [53 x i8] c"sqlite3 error: %s:%d, function %s(), query \22%s\22: %s\0A\00", align 1
@__FUNCTION__.dt_database_start_transaction = private unnamed_addr constant [30 x i8] c"dt_database_start_transaction\00", align 1
@.str.138 = private unnamed_addr constant [18 x i8] c"BEGIN TRANSACTION\00", align 1
@.str.139 = private unnamed_addr constant [16 x i8] c"SAVEPOINT trx%d\00", align 1
@.str.140 = private unnamed_addr constant [64 x i8] c"[dt_database_start_transaction] more than %d nested transaction\00", align 1

; Function Attrs: nounwind uwtable
define ptr @dt_database_get(ptr noundef %0) #0 {
  %2 = alloca ptr, align 8
  store ptr %0, ptr %2, align 8, !tbaa !6
  %3 = load ptr, ptr %2, align 8, !tbaa !6
  %4 = icmp ne ptr %3, null
  br i1 %4, label %5, label %9

5:                                                ; preds = %1
  %6 = load ptr, ptr %2, align 8, !tbaa !6
  %7 = getelementptr inbounds nuw %struct.dt_database_t, ptr %6, i32 0, i32 5
  %8 = load ptr, ptr %7, align 8, !tbaa !11
  br label %10

9:                                                ; preds = %1
  br label %10

10:                                               ; preds = %9, %5
  %11 = phi ptr [ %8, %5 ], [ null, %9 ]
  ret ptr %11
}

; Function Attrs: inlinehint nounwind uwtable
define available_externally i32 @dt_atomic_add_int(ptr noundef %0, i32 noundef %1) #8 {
  %3 = alloca ptr, align 8
  %4 = alloca i32, align 4
  %5 = alloca i32, align 4
  %6 = alloca i32, align 4
  store ptr %0, ptr %3, align 8, !tbaa !72
  store i32 %1, ptr %4, align 4, !tbaa !21
  %7 = load ptr, ptr %3, align 8, !tbaa !72
  %8 = load i32, ptr %4, align 4, !tbaa !21
  store i32 %8, ptr %5, align 4, !tbaa !21
  %9 = load i32, ptr %5, align 4
  %10 = atomicrmw add ptr %7, i32 %9 seq_cst, align 4
  store i32 %10, ptr %6, align 4
  %11 = load i32, ptr %6, align 4, !tbaa !21
  ret i32 %11
}

; Function Attrs: nounwind uwtable
define void @dt_database_start_transaction(ptr noundef %0) #0 {
  %2 = alloca ptr, align 8
  %3 = alloca i32, align 4
  %4 = alloca i32, align 4
  %5 = alloca [32 x i8], align 16
  %6 = alloca i32, align 4
  store ptr %0, ptr %2, align 8, !tbaa !6
  call void @llvm.lifetime.start.p0(i64 4, ptr %3) #13
  %7 = call i32 @dt_atomic_add_int(ptr noundef @_trxid, i32 noundef 1)
  store i32 %7, ptr %3, align 4, !tbaa !21
  %8 = load i32, ptr %3, align 4, !tbaa !21
  %9 = icmp eq i32 %8, 0
  br i1 %9, label %10, label %39

10:                                               ; preds = %1
  br label %11

11:                                               ; preds = %10
  br label %12

12:                                               ; preds = %11
  %13 = load i32, ptr getelementptr inbounds nuw (%struct.darktable_t, ptr @darktable, i32 0, i32 2), align 8, !tbaa !27
  %14 = and i32 256, %13
  %15 = icmp ne i32 %14, 0
  br i1 %15, label %16, label %22

16:                                               ; preds = %12
  %17 = load i32, ptr getelementptr inbounds nuw (%struct.darktable_t, ptr @darktable, i32 0, i32 2), align 8, !tbaa !27
  %18 = xor i32 %17, -1
  %19 = and i32 0, %18
  %20 = icmp ne i32 %19, 0
  br i1 %20, label %22, label %21

21:                                               ; preds = %16
  call void (ptr, ...) @dt_print_ext(ptr noundef @.str.89, ptr noundef @.str.90, i32 noundef 5749, ptr noundef @__FUNCTION__.dt_database_start_transaction, ptr noundef @.str.138)
  br label %22

22:                                               ; preds = %21, %16, %12
  br label %23

23:                                               ; preds = %22
  br label %24

24:                                               ; preds = %23
  call void @llvm.lifetime.start.p0(i64 4, ptr %4) #13
  %25 = load ptr, ptr %2, align 8, !tbaa !6
  %26 = call ptr @dt_database_get(ptr noundef %25)
  %27 = call i32 @sqlite3_exec(ptr noundef %26, ptr noundef @.str.138, ptr noundef null, ptr noundef null, ptr noundef null)
  store i32 %27, ptr %4, align 4, !tbaa !21
  %28 = load i32, ptr %4, align 4, !tbaa !21
  %29 = icmp ne i32 %28, 0
  br i1 %29, label %30, label %36

30:                                               ; preds = %24
  %31 = load ptr, ptr @stderr, align 8, !tbaa !80
  %32 = load ptr, ptr getelementptr inbounds nuw (%struct.darktable_t, ptr @darktable, i32 0, i32 18), align 8, !tbaa !82
  %33 = call ptr @dt_database_get(ptr noundef %32)
  %34 = call ptr @sqlite3_errmsg(ptr noundef %33)
  %35 = call i32 (ptr, ptr, ...) @fprintf(ptr noundef %31, ptr noundef @.str.91, ptr noundef @.str.90, i32 noundef 5749, ptr noundef @__FUNCTION__.dt_database_start_transaction, ptr noundef @.str.138, ptr noundef %34) #13
  br label %36

36:                                               ; preds = %30, %24
  call void @llvm.lifetime.end.p0(i64 4, ptr %4) #13
  br label %37

37:                                               ; preds = %36
  br label %38

38:                                               ; preds = %37
  br label %74

39:                                               ; preds = %1
  call void @llvm.lifetime.start.p0(i64 32, ptr %5) #13
  call void @llvm.memset.p0.i64(ptr align 16 %5, i8 0, i64 32, i1 false)
  %40 = getelementptr inbounds [32 x i8], ptr %5, i64 0, i64 0
  %41 = load i32, ptr %3, align 4, !tbaa !21
  %42 = call i32 (ptr, i64, ptr, ...) @g_snprintf(ptr noundef %40, i64 noundef 32, ptr noundef @.str.139, i32 noundef %41)
  br label %43

43:                                               ; preds = %39
  br label %44

44:                                               ; preds = %43
  %45 = load i32, ptr getelementptr inbounds nuw (%struct.darktable_t, ptr @darktable, i32 0, i32 2), align 8, !tbaa !27
  %46 = and i32 256, %45
  %47 = icmp ne i32 %46, 0
  br i1 %47, label %48, label %55

48:                                               ; preds = %44
  %49 = load i32, ptr getelementptr inbounds nuw (%struct.darktable_t, ptr @darktable, i32 0, i32 2), align 8, !tbaa !27
  %50 = xor i32 %49, -1
  %51 = and i32 0, %50
  %52 = icmp ne i32 %51, 0
  br i1 %52, label %55, label %53

53:                                               ; preds = %48
  %54 = getelementptr inbounds [32 x i8], ptr %5, i64 0, i64 0
  call void (ptr, ...) @dt_print_ext(ptr noundef @.str.89, ptr noundef @.str.90, i32 noundef 5756, ptr noundef @__FUNCTION__.dt_database_start_transaction, ptr noundef %54)
  br label %55

55:                                               ; preds = %53, %48, %44
  br label %56

56:                                               ; preds = %55
  br label %57

57:                                               ; preds = %56
  call void @llvm.lifetime.start.p0(i64 4, ptr %6) #13
  %58 = load ptr, ptr %2, align 8, !tbaa !6
  %59 = call ptr @dt_database_get(ptr noundef %58)
  %60 = getelementptr inbounds [32 x i8], ptr %5, i64 0, i64 0
  %61 = call i32 @sqlite3_exec(ptr noundef %59, ptr noundef %60, ptr noundef null, ptr noundef null, ptr noundef null)
  store i32 %61, ptr %6, align 4, !tbaa !21
  %62 = load i32, ptr %6, align 4, !tbaa !21
  %63 = icmp ne i32 %62, 0
  br i1 %63, label %64, label %71

64:                                               ; preds = %57
  %65 = load ptr, ptr @stderr, align 8, !tbaa !80
  %66 = getelementptr inbounds [32 x i8], ptr %5, i64 0, i64 0
  %67 = load ptr, ptr getelementptr inbounds nuw (%struct.darktable_t, ptr @darktable, i32 0, i32 18), align 8, !tbaa !82
  %68 = call ptr @dt_database_get(ptr noundef %67)
  %69 = call ptr @sqlite3_errmsg(ptr noundef %68)
  %70 = call i32 (ptr, ptr, ...) @fprintf(ptr noundef %65, ptr noundef @.str.91, ptr noundef @.str.90, i32 noundef 5756, ptr noundef @__FUNCTION__.dt_database_start_transaction, ptr noundef %66, ptr noundef %69) #13
  br label %71

71:                                               ; preds = %64, %57
  call void @llvm.lifetime.end.p0(i64 4, ptr %6) #13
  br label %72

72:                                               ; preds = %71
  br label %73

73:                                               ; preds = %72
  call void @llvm.lifetime.end.p0(i64 32, ptr %5) #13
  br label %74

74:                                               ; preds = %73, %38
  %75 = load i32, ptr %3, align 4, !tbaa !21
  %76 = icmp sgt i32 %75, 5
  br i1 %76, label %77, label %87

77:                                               ; preds = %74
  br label %78

78:                                               ; preds = %77
  %79 = load i32, ptr getelementptr inbounds nuw (%struct.darktable_t, ptr @darktable, i32 0, i32 2), align 8, !tbaa !27
  %80 = xor i32 %79, -1
  %81 = and i32 0, %80
  %82 = icmp ne i32 %81, 0
  br i1 %82, label %84, label %83

83:                                               ; preds = %78
  call void (ptr, ...) @dt_print_ext(ptr noundef @.str.140, i32 noundef 5)
  br label %84

84:                                               ; preds = %83, %78
  br label %85

85:                                               ; preds = %84
  br label %86

86:                                               ; preds = %85
  br label %87

87:                                               ; preds = %86, %74
  call void @llvm.lifetime.end.p0(i64 4, ptr %3) #13
  ret void
}