; Function Attrs: nounwind uwtable
define void @dt_database_start_transaction(ptr noundef readonly %0) local_unnamed_addr #0 {
  %2 = alloca [32 x i8], align 16
  %3 = atomicrmw add ptr @_trxid, i32 1 seq_cst, align 4
  %4 = icmp eq i32 %3, 0
  br i1 %4, label %5, label %24

5:                                                ; preds = %1
  %6 = load i32, ptr getelementptr inbounds nuw (i8, ptr @darktable, i64 8), align 8, !tbaa !25
  %7 = and i32 %6, 256
  %.not7 = icmp eq i32 %7, 0
  br i1 %.not7, label %9, label %8

8:                                                ; preds = %5
  tail call void (ptr, ...) @dt_print_ext(ptr noundef nonnull @.str.89, ptr noundef nonnull @.str.90, i32 noundef 5749, ptr noundef nonnull @__FUNCTION__.dt_database_start_transaction, ptr noundef nonnull @.str.138) #18
  br label %9

9:                                                ; preds = %8, %5
  %.not.i = icmp eq ptr %0, null
  br i1 %.not.i, label %dt_database_get.exit, label %10

10:                                               ; preds = %9
  %11 = getelementptr inbounds nuw i8, ptr %0, i64 40
  %12 = load ptr, ptr %11, align 8, !tbaa !6
  br label %dt_database_get.exit

dt_database_get.exit:                             ; preds = %9, %10
  %13 = phi ptr [ %12, %10 ], [ null, %9 ]
  %14 = tail call i32 @sqlite3_exec(ptr noundef %13, ptr noundef nonnull @.str.138, ptr noundef null, ptr noundef null, ptr noundef null) #18
  %.not8 = icmp eq i32 %14, 0
  br i1 %.not8, label %.thread, label %15

15:                                               ; preds = %dt_database_get.exit
  %16 = load ptr, ptr @stderr, align 8, !tbaa !71
  %17 = load ptr, ptr getelementptr inbounds nuw (i8, ptr @darktable, i64 136), align 8, !tbaa !73
  %.not.i9 = icmp eq ptr %17, null
  br i1 %.not.i9, label %dt_database_get.exit10, label %18

18:                                               ; preds = %15
  %19 = getelementptr inbounds nuw i8, ptr %17, i64 40
  %20 = load ptr, ptr %19, align 8, !tbaa !6
  br label %dt_database_get.exit10

dt_database_get.exit10:                           ; preds = %15, %18
  %21 = phi ptr [ %20, %18 ], [ null, %15 ]
  %22 = tail call ptr @sqlite3_errmsg(ptr noundef %21) #18
  %23 = tail call i32 (ptr, ptr, ...) @fprintf(ptr noundef %16, ptr noundef nonnull @.str.91, ptr noundef nonnull @.str.90, i32 noundef 5749, ptr noundef nonnull @__FUNCTION__.dt_database_start_transaction, ptr noundef nonnull @.str.138, ptr noundef %22) #23
  br label %.thread

24:                                               ; preds = %1
  call void @llvm.lifetime.start.p0(i64 32, ptr nonnull %2) #18
  call void @llvm.memset.p0.i64(ptr noundef nonnull align 16 dereferenceable(32) %2, i8 0, i64 32, i1 false)
  %25 = call i32 (ptr, i64, ptr, ...) @g_snprintf(ptr noundef nonnull %2, i64 noundef 32, ptr noundef nonnull @.str.139, i32 noundef %3) #18
  %26 = load i32, ptr getelementptr inbounds nuw (i8, ptr @darktable, i64 8), align 8, !tbaa !25
  %27 = and i32 %26, 256
  %.not = icmp eq i32 %27, 0
  br i1 %.not, label %29, label %28

28:                                               ; preds = %24
  call void (ptr, ...) @dt_print_ext(ptr noundef nonnull @.str.89, ptr noundef nonnull @.str.90, i32 noundef 5756, ptr noundef nonnull @__FUNCTION__.dt_database_start_transaction, ptr noundef nonnull %2) #18
  br label %29

29:                                               ; preds = %28, %24
  %.not.i11 = icmp eq ptr %0, null
  br i1 %.not.i11, label %dt_database_get.exit12, label %30

30:                                               ; preds = %29
  %31 = getelementptr inbounds nuw i8, ptr %0, i64 40
  %32 = load ptr, ptr %31, align 8, !tbaa !6
  br label %dt_database_get.exit12

dt_database_get.exit12:                           ; preds = %29, %30
  %33 = phi ptr [ %32, %30 ], [ null, %29 ]
  %34 = call i32 @sqlite3_exec(ptr noundef %33, ptr noundef nonnull %2, ptr noundef null, ptr noundef null, ptr noundef null) #18
  %.not6 = icmp eq i32 %34, 0
  br i1 %.not6, label %44, label %35

35:                                               ; preds = %dt_database_get.exit12
  %36 = load ptr, ptr @stderr, align 8, !tbaa !71
  %37 = load ptr, ptr getelementptr inbounds nuw (i8, ptr @darktable, i64 136), align 8, !tbaa !73
  %.not.i13 = icmp eq ptr %37, null
  br i1 %.not.i13, label %dt_database_get.exit14, label %38

38:                                               ; preds = %35
  %39 = getelementptr inbounds nuw i8, ptr %37, i64 40
  %40 = load ptr, ptr %39, align 8, !tbaa !6
  br label %dt_database_get.exit14

dt_database_get.exit14:                           ; preds = %35, %38
  %41 = phi ptr [ %40, %38 ], [ null, %35 ]
  %42 = call ptr @sqlite3_errmsg(ptr noundef %41) #18
  %43 = call i32 (ptr, ptr, ...) @fprintf(ptr noundef %36, ptr noundef nonnull @.str.91, ptr noundef nonnull @.str.90, i32 noundef 5756, ptr noundef nonnull @__FUNCTION__.dt_database_start_transaction, ptr noundef nonnull %2, ptr noundef %42) #23
  br label %44

44:                                               ; preds = %dt_database_get.exit12, %dt_database_get.exit14
  call void @llvm.lifetime.end.p0(i64 32, ptr nonnull %2) #18
  %45 = icmp sgt i32 %3, 5
  br i1 %45, label %46, label %.thread

46:                                               ; preds = %44
  call void (ptr, ...) @dt_print_ext(ptr noundef nonnull @.str.140, i32 noundef 5) #18
  br label %.thread

.thread:                                          ; preds = %dt_database_get.exit10, %dt_database_get.exit, %46, %44
  ret void
}